target datalayout = "e-m:e-p270:32:32-p271:32:32-p272:64:64-i64:64-i128:128-f80:128-n8:16:32:64-S128"
target triple = "x86_64-unknown-linux-gnu"

%"class.QuantLib::TripleBandLinearOp" = type { %"class.QuantLib::FdmLinearOp", i64, %"class.std::unique_ptr", %"class.std::unique_ptr", %"class.std::unique_ptr", %"class.std::unique_ptr.10", %"class.std::unique_ptr.10", %"class.std::unique_ptr.10", %"class.boost::shared_ptr.18" }
%"class.QuantLib::FdmLinearOp" = type { ptr }
%"class.std::unique_ptr" = type { %"struct.std::__uniq_ptr_data" }
%"struct.std::__uniq_ptr_data" = type { %"class.std::__uniq_ptr_impl" }
%"class.std::__uniq_ptr_impl" = type { %"class.std::tuple" }
%"class.std::tuple" = type { %"struct.std::_Tuple_impl" }
%"struct.std::_Tuple_impl" = type { %"struct.std::_Head_base.9" }
%"struct.std::_Head_base.9" = type { ptr }
%"class.std::unique_ptr.10" = type { %"struct.std::__uniq_ptr_data.11" }
%"struct.std::__uniq_ptr_data.11" = type { %"class.std::__uniq_ptr_impl.12" }
%"class.std::__uniq_ptr_impl.12" = type { %"class.std::tuple.13" }
%"class.std::tuple.13" = type { %"struct.std::_Tuple_impl.14" }
%"struct.std::_Tuple_impl.14" = type { %"struct.std::_Head_base.17" }
%"struct.std::_Head_base.17" = type { ptr }
%"class.boost::shared_ptr.18" = type { ptr, %"class.boost::detail::shared_count" }
%"class.boost::detail::shared_count" = type { ptr }
%"class.QuantLib::Array" = type { %"class.std::unique_ptr.10", i64 }
%"class.QuantLib::FdmCEVOp" = type { %"class.QuantLib::FdmLinearOpComposite", ptr, i64, %"class.QuantLib::TripleBandLinearOp", %"class.QuantLib::TripleBandLinearOp" }
%"class.QuantLib::FdmLinearOpComposite" = type { %"class.QuantLib::FdmLinearOp" }

; Function Attrs: mustprogress uwtable
define void @_ZNK8QuantLib8FdmCEVOp14preconditionerERKNS_5ArrayEd(ptr dead_on_unwind noalias writable sret(%"class.QuantLib::Array") align 8 %agg.result, ptr noundef nonnull align 8 dereferenceable(184) %this, ptr noundef nonnull align 8 dereferenceable(16) %r, double noundef %dt) unnamed_addr #8 align 2 {
entry:
  %result.ptr = alloca ptr, align 8
  %this.addr = alloca ptr, align 8
  %r.addr = alloca ptr, align 8
  %dt.addr = alloca double, align 8
  store ptr %agg.result, ptr %result.ptr, align 8
  store ptr %this, ptr %this.addr, align 8, !tbaa !3
  store ptr %r, ptr %r.addr, align 8, !tbaa !3
  store double %dt, ptr %dt.addr, align 8, !tbaa !7
  %this1 = load ptr, ptr %this.addr, align 8
  %direction_ = getelementptr inbounds nuw %"class.QuantLib::FdmCEVOp", ptr %this1, i32 0, i32 2
  %0 = load i64, ptr %direction_, align 8, !tbaa !13
  %1 = load ptr, ptr %r.addr, align 8, !tbaa !3
  %2 = load double, ptr %dt.addr, align 8, !tbaa !7
  %vtable = load ptr, ptr %this1, align 8, !tbaa !11
  %vfn = getelementptr inbounds ptr, ptr %vtable, i64 8
  %3 = load ptr, ptr %vfn, align 8
  call void %3(ptr dead_on_unwind writable sret(%"class.QuantLib::Array") align 8 %agg.result, ptr noundef nonnull align 8 dereferenceable(184) %this1, i64 noundef %0, ptr noundef nonnull align 8 dereferenceable(16) %1, double noundef %2)
  ret void
}