; Function Attrs: mustprogress uwtable
define void @_ZNK8QuantLib8FdmCEVOp14preconditionerERKNS_5ArrayEd(ptr dead_on_unwind noalias writable sret(%"class.QuantLib::Array") align 8 %agg.result, ptr noundef nonnull align 8 dereferenceable(184) %this, ptr noundef nonnull align 8 dereferenceable(16) %r, double noundef %dt) unnamed_addr #6 align 2 {
entry:
  %direction_ = getelementptr inbounds nuw i8, ptr %this, i64 16
  %0 = load i64, ptr %direction_, align 8, !tbaa !9
  %vtable = load ptr, ptr %this, align 8, !tbaa !3
  %vfn = getelementptr inbounds i8, ptr %vtable, i64 64
  %1 = load ptr, ptr %vfn, align 8
  tail call void %1(ptr dead_on_unwind writable sret(%"class.QuantLib::Array") align 8 %agg.result, ptr noundef nonnull align 8 dereferenceable(184) %this, i64 noundef %0, ptr noundef nonnull align 8 dereferenceable(16) %r, double noundef %dt)
  ret void
}